target datalayout = "e-m:e-p270:32:32-p271:32:32-p272:64:64-i64:64-i128:128-f80:128-n8:16:32:64-S128"
target triple = "x86_64-pc-linux-gnu"

%struct._zend_executor_globals = type { %struct._zval_struct, %struct._zval_struct, [32 x ptr], ptr, ptr, %struct._zend_array, %struct._zend_array, ptr, i32, i32, ptr, ptr, ptr, ptr, ptr, ptr, i64, ptr, ptr, i32, i32, i64, i32, i32, i32, i8, i8, %struct.zend_atomic_bool_s, %struct.zend_atomic_bool_s, ptr, i64, ptr, ptr, %struct._zend_array, %struct._zend_array, i32, i8, %struct._zval_struct, %struct._zval_struct, %struct._zend_stack, %struct._zend_stack, %struct._zend_stack, ptr, i32, i32, i64, ptr, ptr, ptr, %struct._zend_objects_store, ptr, ptr, ptr, [3 x %struct._zend_op], ptr, i8, i8, i64, i32, i32, ptr, [16 x %struct._HashTableIterator], ptr, %union._zend_function, %struct._zend_op, %struct._zend_array, i64, %struct.zend_get_gc_buffer, ptr, ptr, ptr, i64, i8, i32, ptr, ptr, i64, %struct._zend_call_stack, i64, i64, [6 x ptr] }
%struct.zend_atomic_bool_s = type { i8 }
%struct._zval_struct = type { %union._zend_value, %union.anon, %union.anon.2 }
%union._zend_value = type { i64 }
%union.anon = type { i32 }
%union.anon.2 = type { i32 }
%struct._zend_stack = type { i32, i32, i32, ptr }
%struct._zend_objects_store = type { ptr, i32, i32, i32 }
%struct._HashTableIterator = type { ptr, i32, i32 }
%union._zend_function = type { %struct._zend_op_array }
%struct._zend_op_array = type { i8, [3 x i8], i32, ptr, ptr, ptr, i32, i32, ptr, ptr, ptr, ptr, i32, i32, i32, i32, ptr, ptr, ptr, ptr, ptr, i32, i32, ptr, ptr, ptr, i32, i32, i32, i32, ptr, ptr, [6 x ptr] }
%struct._zend_op = type { ptr, %union._znode_op, %union._znode_op, %union._znode_op, i32, i32, i8, i8, i8, i8 }
%union._znode_op = type { i32 }
%struct._zend_array = type { %struct._zend_refcounted_h, %union.anon.4, i32, %union.anon.6, i32, i32, i32, i32, i64, ptr }
%struct._zend_refcounted_h = type { i32, %union.anon.3 }
%union.anon.3 = type { i32 }
%union.anon.4 = type { i32 }
%union.anon.6 = type { ptr }
%struct.zend_get_gc_buffer = type { ptr, ptr, ptr }
%struct._zend_call_stack = type { ptr, i64 }
%struct._zend_execute_data = type { ptr, ptr, ptr, ptr, %struct._zval_struct, ptr, ptr, ptr, ptr }
%struct._spl_heap_object = type { ptr, i32, ptr, ptr, %struct._zend_object }
%struct._zend_object = type { %struct._zend_refcounted_h, i32, ptr, ptr, ptr, [1 x %struct._zval_struct] }
%struct._spl_ptr_heap = type { ptr, ptr, ptr, ptr, i32, i32, i64, i64 }
%struct.anon.0 = type { i8, i8, %union.anon.1 }
%union.anon.1 = type { i16 }
%struct._zend_reference = type { %struct._zend_refcounted_h, %struct._zval_struct, %union.zend_property_info_source_list }
%union.zend_property_info_source_list = type { ptr }

@executor_globals = external global %struct._zend_executor_globals, align 8

; Function Attrs: nounwind uwtable
define internal ptr @spl_heap_from_obj(ptr noundef %0) #0 {
  %2 = alloca ptr, align 8
  store ptr %0, ptr %2, align 8
  %3 = load ptr, ptr %2, align 8
  %4 = getelementptr inbounds i8, ptr %3, i64 -32
  ret ptr %4
}

; Function Attrs: nounwind uwtable
define hidden void @zim_SplHeap_current(ptr noundef %0, ptr noundef %1) #0 {
  %3 = alloca ptr, align 8
  %4 = alloca i64, align 8
  %5 = alloca ptr, align 8
  %6 = alloca ptr, align 8
  %7 = alloca ptr, align 8
  %8 = alloca ptr, align 8
  %9 = alloca ptr, align 8
  %10 = alloca ptr, align 8
  %11 = alloca ptr, align 8
  %12 = alloca ptr, align 8
  %13 = alloca ptr, align 8
  %14 = alloca ptr, align 8
  %15 = alloca ptr, align 8
  %16 = alloca ptr, align 8
  %17 = alloca i32, align 4
  store ptr %0, ptr %9, align 8
  store ptr %1, ptr %10, align 8
  %18 = load ptr, ptr %9, align 8
  %19 = getelementptr inbounds %struct._zend_execute_data, ptr %18, i32 0, i32 4
  %20 = getelementptr inbounds %struct._zval_struct, ptr %19, i32 0, i32 0
  %21 = load ptr, ptr %20, align 8
  %22 = call ptr @spl_heap_from_obj(ptr noundef %21)
  store ptr %22, ptr %11, align 8
  %23 = load ptr, ptr %9, align 8
  %24 = getelementptr inbounds %struct._zend_execute_data, ptr %23, i32 0, i32 4
  %25 = getelementptr inbounds %struct._zval_struct, ptr %24, i32 0, i32 2
  %26 = load i32, ptr %25, align 4
  %27 = icmp eq i32 %26, 0
  %28 = xor i1 %27, true
  %29 = xor i1 %28, true
  %30 = zext i1 %29 to i32
  %31 = sext i32 %30 to i64
  %32 = icmp ne i64 %31, 0
  br i1 %32, label %33, label %34

33:                                               ; preds = %2
  br label %35

34:                                               ; preds = %2
  call void @zend_wrong_parameters_none_error()
  br label %35

35:                                               ; preds = %34, %33
  %36 = phi i32 [ 0, %33 ], [ -1, %34 ]
  %37 = icmp eq i32 %36, -1
  br i1 %37, label %38, label %43

38:                                               ; preds = %35
  br label %39

39:                                               ; preds = %38
  %40 = load ptr, ptr getelementptr inbounds (%struct._zend_executor_globals, ptr @executor_globals, i32 0, i32 50), align 8
  %41 = icmp ne ptr %40, null
  call void @llvm.assume(i1 %41)
  br label %147

42:                                               ; No predecessors!
  br label %43

43:                                               ; preds = %42, %35
  %44 = load ptr, ptr %11, align 8
  %45 = getelementptr inbounds %struct._spl_heap_object, ptr %44, i32 0, i32 0
  %46 = load ptr, ptr %45, align 8
  %47 = getelementptr inbounds %struct._spl_ptr_heap, ptr %46, i32 0, i32 4
  %48 = load i32, ptr %47, align 8
  %49 = icmp ne i32 %48, 0
  br i1 %49, label %57, label %50

50:                                               ; preds = %43
  br label %51

51:                                               ; preds = %50
  br label %52

52:                                               ; preds = %51
  %53 = load ptr, ptr %10, align 8
  %54 = getelementptr inbounds %struct._zval_struct, ptr %53, i32 0, i32 1
  store i32 1, ptr %54, align 8
  br label %55

55:                                               ; preds = %52
  br label %147

56:                                               ; No predecessors!
  br label %147

57:                                               ; preds = %43
  %58 = load ptr, ptr %11, align 8
  %59 = getelementptr inbounds %struct._spl_heap_object, ptr %58, i32 0, i32 0
  %60 = load ptr, ptr %59, align 8
  store ptr %60, ptr %3, align 8
  store i64 0, ptr %4, align 8
  %61 = load ptr, ptr %3, align 8
  %62 = load ptr, ptr %61, align 8
  %63 = load ptr, ptr %3, align 8
  %64 = getelementptr inbounds %struct._spl_ptr_heap, ptr %63, i32 0, i32 7
  %65 = load i64, ptr %64, align 8
  %66 = load i64, ptr %4, align 8
  %67 = mul i64 %65, %66
  %68 = getelementptr inbounds i8, ptr %62, i64 %67
  store ptr %68, ptr %12, align 8
  br label %69

69:                                               ; preds = %57
  br label %70

70:                                               ; preds = %69
  %71 = load ptr, ptr %12, align 8
  store ptr %71, ptr %13, align 8
  %72 = load ptr, ptr %13, align 8
  %73 = getelementptr inbounds %struct._zval_struct, ptr %72, i32 0, i32 1
  %74 = load i32, ptr %73, align 8
  %75 = and i32 %74, 65280
  %76 = icmp ne i32 %75, 0
  br i1 %76, label %77, label %126

77:                                               ; preds = %70
  %78 = load ptr, ptr %13, align 8
  %79 = getelementptr inbounds %struct._zval_struct, ptr %78, i32 0, i32 1
  %80 = load i32, ptr %79, align 8
  %81 = and i32 %80, 255
  %82 = icmp eq i32 %81, 10
  %83 = xor i1 %82, true
  %84 = xor i1 %83, true
  %85 = zext i1 %84 to i32
  %86 = sext i32 %85 to i64
  %87 = icmp ne i64 %86, 0
  br i1 %87, label %88, label %112

88:                                               ; preds = %77
  %89 = load ptr, ptr %13, align 8
  %90 = getelementptr inbounds %struct._zval_struct, ptr %89, i32 0, i32 0
  %91 = load ptr, ptr %90, align 8
  %92 = getelementptr inbounds %struct._zend_reference, ptr %91, i32 0, i32 1
  store ptr %92, ptr %13, align 8
  %93 = load ptr, ptr %13, align 8
  %94 = getelementptr inbounds %struct._zval_struct, ptr %93, i32 0, i32 1
  %95 = load i32, ptr %94, align 8
  %96 = and i32 %95, 65280
  %97 = icmp ne i32 %96, 0
  br i1 %97, label %98, label %111

98:                                               ; preds = %88
  %99 = load ptr, ptr %13, align 8
  store ptr %99, ptr %7, align 8
  %100 = load ptr, ptr %7, align 8
  %101 = getelementptr inbounds %struct._zval_struct, ptr %100, i32 0, i32 1
  %102 = getelementptr inbounds %struct.anon.0, ptr %101, i32 0, i32 1
  %103 = load i8, ptr %102, align 1
  %104 = zext i8 %103 to i32
  %105 = icmp ne i32 %104, 0
  call void @llvm.assume(i1 %105)
  %106 = load ptr, ptr %7, align 8
  %107 = load ptr, ptr %106, align 8
  store ptr %107, ptr %6, align 8
  %108 = load ptr, ptr %6, align 8
  %109 = load i32, ptr %108, align 4
  %110 = add i32 %109, 1
  store i32 %110, ptr %108, align 4
  br label %111

111:                                              ; preds = %98, %88
  br label %125

112:                                              ; preds = %77
  %113 = load ptr, ptr %13, align 8
  store ptr %113, ptr %8, align 8
  %114 = load ptr, ptr %8, align 8
  %115 = getelementptr inbounds %struct._zval_struct, ptr %114, i32 0, i32 1
  %116 = getelementptr inbounds %struct.anon.0, ptr %115, i32 0, i32 1
  %117 = load i8, ptr %116, align 1
  %118 = zext i8 %117 to i32
  %119 = icmp ne i32 %118, 0
  call void @llvm.assume(i1 %119)
  %120 = load ptr, ptr %8, align 8
  %121 = load ptr, ptr %120, align 8
  store ptr %121, ptr %5, align 8
  %122 = load ptr, ptr %5, align 8
  %123 = load i32, ptr %122, align 4
  %124 = add i32 %123, 1
  store i32 %124, ptr %122, align 4
  br label %125

125:                                              ; preds = %112, %111
  br label %126

126:                                              ; preds = %125, %70
  br label %127

127:                                              ; preds = %126
  %128 = load ptr, ptr %10, align 8
  store ptr %128, ptr %14, align 8
  %129 = load ptr, ptr %13, align 8
  store ptr %129, ptr %15, align 8
  %130 = load ptr, ptr %15, align 8
  %131 = getelementptr inbounds %struct._zval_struct, ptr %130, i32 0, i32 0
  %132 = load ptr, ptr %131, align 8
  store ptr %132, ptr %16, align 8
  %133 = load ptr, ptr %15, align 8
  %134 = getelementptr inbounds %struct._zval_struct, ptr %133, i32 0, i32 1
  %135 = load i32, ptr %134, align 8
  store i32 %135, ptr %17, align 4
  br label %136

136:                                              ; preds = %127
  %137 = load ptr, ptr %16, align 8
  %138 = load ptr, ptr %14, align 8
  %139 = getelementptr inbounds %struct._zval_struct, ptr %138, i32 0, i32 0
  store ptr %137, ptr %139, align 8
  %140 = load i32, ptr %17, align 4
  %141 = load ptr, ptr %14, align 8
  %142 = getelementptr inbounds %struct._zval_struct, ptr %141, i32 0, i32 1
  store i32 %140, ptr %142, align 8
  br label %143

143:                                              ; preds = %136
  br label %144

144:                                              ; preds = %143
  br label %145

145:                                              ; preds = %144
  br label %147

146:                                              ; No predecessors!
  br label %147

147:                                              ; preds = %146, %145, %56, %55, %39
  ret void
}